#include <math.h>
#include <stdio.h>
#include <stdlib.h>
#include <string.h>

int main()
{
 int m,n,a,b,q;
double s=0;
 scanf("%d",&m);
 for(int i=0;i<m;i++){
 scanf("%d",&n);
 s=0;
  for(int h=0;h<n;h++){
      if(h==0){ a=2;
    b=1;}
    else{
    q=a;
    a=a+b;
    b=q;}
    s=s+a*1.0/b;
  }
  printf("%.3lf\n",s);
 }
return 0;
}
   